; Function Attrs: nounwind uwtable
define range(i32 -1, 1) i32 @H5Pget_obj_track_times(i64 noundef %0, ptr noundef writeonly captures(address_is_null) %1) local_unnamed_addr #0 {
  %3 = alloca %struct.H5CX_node_t, align 8
  %4 = alloca i8, align 1
  call void @llvm.lifetime.start.p0(i64 480, ptr nonnull %3) #10
  call void @llvm.memset.p0.i64(ptr noundef nonnull align 8 dereferenceable(480) %3, i8 0, i64 480, i1 false)
  %5 = load i8, ptr @H5_libinit_g, align 1, !tbaa !3, !range !7, !noundef !8
  %6 = trunc nuw i8 %5 to i1
  %7 = load i8, ptr @H5_libterm_g, align 1, !range !7
  %8 = trunc nuw i8 %7 to i1
  %9 = select i1 %6, i1 true, i1 %8
  br i1 %9, label %17, label %10, !prof !9

10:                                               ; preds = %2
  %11 = tail call i32 @H5_init_library() #10
  %12 = icmp slt i32 %11, 0
  br i1 %12, label %13, label %._crit_edge, !prof !14

._crit_edge:                                      ; preds = %10
  %.pre = load i8, ptr @H5_libterm_g, align 1, !range !7
  br label %17

13:                                               ; preds = %10
  %14 = load i64, ptr @H5E_FUNC_g, align 8, !tbaa !10
  %15 = load i64, ptr @H5E_CANTINIT_g, align 8, !tbaa !10
  %16 = tail call i32 (ptr, ptr, i32, i64, i64, ptr, ...) @H5E_printf_stack(ptr noundef nonnull @.str.1, ptr noundef nonnull @__func__.H5Pget_obj_track_times, i32 noundef 422, i64 noundef %14, i64 noundef %15, ptr noundef nonnull @.str.2) #10
  br label %.thread25

17:                                               ; preds = %._crit_edge, %2
  %18 = phi i8 [ %.pre, %._crit_edge ], [ %7, %2 ]
  %19 = load i8, ptr @H5P_init_g, align 1, !tbaa !3, !range !7, !noundef !8
  %20 = trunc nuw i8 %19 to i1
  %21 = trunc nuw i8 %18 to i1
  %22 = select i1 %20, i1 true, i1 %21
  br i1 %22, label %30, label %23, !prof !9

23:                                               ; preds = %17
  store i8 1, ptr @H5P_init_g, align 1, !tbaa !3
  %24 = tail call i32 @H5P__init_package() #10
  %25 = icmp slt i32 %24, 0
  br i1 %25, label %26, label %30, !prof !15

26:                                               ; preds = %23
  store i8 0, ptr @H5P_init_g, align 1, !tbaa !3
  %27 = load i64, ptr @H5E_FUNC_g, align 8, !tbaa !10
  %28 = load i64, ptr @H5E_CANTINIT_g, align 8, !tbaa !10
  %29 = tail call i32 (ptr, ptr, i32, i64, i64, ptr, ...) @H5E_printf_stack(ptr noundef nonnull @.str.1, ptr noundef nonnull @__func__.H5Pget_obj_track_times, i32 noundef 422, i64 noundef %27, i64 noundef %28, ptr noundef nonnull @.str.3) #10
  br label %.thread25

30:                                               ; preds = %17, %23
  %31 = call i32 @H5CX_push(ptr noundef nonnull %3) #10
  %32 = icmp slt i32 %31, 0
  br i1 %32, label %33, label %37, !prof !14

33:                                               ; preds = %30
  %34 = load i64, ptr @H5E_FUNC_g, align 8, !tbaa !10
  %35 = load i64, ptr @H5E_CANTSET_g, align 8, !tbaa !10
  %36 = call i32 (ptr, ptr, i32, i64, i64, ptr, ...) @H5E_printf_stack(ptr noundef nonnull @.str.1, ptr noundef nonnull @__func__.H5Pget_obj_track_times, i32 noundef 422, i64 noundef %34, i64 noundef %35, ptr noundef nonnull @.str.4) #10
  br label %.thread25

37:                                               ; preds = %30
  %38 = call i32 @H5E_clear_stack() #10
  %.not = icmp eq ptr %1, null
  br i1 %.not, label %.thread29, label %40

.thread29:                                        ; preds = %37
  %39 = call i32 @H5CX_pop(i1 noundef zeroext true) #10
  br label %61

40:                                               ; preds = %37
  call void @llvm.lifetime.start.p0(i64 1, ptr nonnull %4) #10
  %41 = load i64, ptr @H5P_CLS_OBJECT_CREATE_ID_g, align 8, !tbaa !10
  %42 = call ptr @H5P_object_verify(i64 noundef %0, i64 noundef %41, i1 noundef zeroext true) #10
  %43 = icmp eq ptr %42, null
  br i1 %43, label %44, label %48

44:                                               ; preds = %40
  %45 = load i64, ptr @H5E_ID_g, align 8, !tbaa !10
  %46 = load i64, ptr @H5E_BADID_g, align 8, !tbaa !10
  %47 = call i32 (ptr, ptr, i32, i64, i64, ptr, ...) @H5E_printf_stack(ptr noundef nonnull @.str.1, ptr noundef nonnull @__func__.H5Pget_obj_track_times, i32 noundef 431, i64 noundef %45, i64 noundef %46, ptr noundef nonnull @.str.8) #10
  br label %.thread33

48:                                               ; preds = %40
  %49 = call i32 @H5P_get(ptr noundef nonnull %42, ptr noundef nonnull @.str.16, ptr noundef nonnull %4) #10
  %50 = icmp slt i32 %49, 0
  br i1 %50, label %51, label %56

51:                                               ; preds = %48
  %52 = load i64, ptr @H5E_PLIST_g, align 8, !tbaa !10
  %53 = load i64, ptr @H5E_CANTGET_g, align 8, !tbaa !10
  %54 = call i32 (ptr, ptr, i32, i64, i64, ptr, ...) @H5E_printf_stack(ptr noundef nonnull @.str.1, ptr noundef nonnull @__func__.H5Pget_obj_track_times, i32 noundef 435, i64 noundef %52, i64 noundef %53, ptr noundef nonnull @.str.17) #10
  br label %.thread33

.thread33:                                        ; preds = %44, %51
  call void @llvm.lifetime.end.p0(i64 1, ptr nonnull %4) #10
  %55 = call i32 @H5CX_pop(i1 noundef zeroext true) #10
  br label %.thread25

56:                                               ; preds = %48
  %57 = load i8, ptr %4, align 1, !tbaa !17
  %58 = lshr i8 %57, 5
  %.lobit = and i8 %58, 1
  store i8 %.lobit, ptr %1, align 1, !tbaa !3
  call void @llvm.lifetime.end.p0(i64 1, ptr nonnull %4) #10
  %59 = call i32 @H5CX_pop(i1 noundef zeroext true) #10
  br label %61

.thread25:                                        ; preds = %13, %26, %33, %.thread33
  %60 = call i32 @H5E_dump_api_stack() #10
  br label %61

61:                                               ; preds = %56, %.thread29, %.thread25
  %.013 = phi i32 [ -1, %.thread25 ], [ 0, %56 ], [ 0, %.thread29 ]
  call void @llvm.lifetime.end.p0(i64 480, ptr nonnull %3) #10
  ret i32 %.013
}